target datalayout = "e-m:e-p270:32:32-p271:32:32-p272:64:64-i64:64-i128:128-f80:128-n8:16:32:64-S128"
target triple = "x86_64-pc-linux-gnu"

@.str.15 = private unnamed_addr constant [20 x i8] c"expected 1 argument\00", align 1
@.str.99 = private unnamed_addr constant [48 x i8] c"Memory allocation error in CJSON protected call\00", align 1

; Function Attrs: nounwind uwtable
define internal i32 @json_protect_conversion(ptr noundef %0) #0 {
  %2 = alloca i32, align 4
  %3 = alloca ptr, align 8
  %4 = alloca i32, align 4
  %5 = alloca i32, align 4
  store ptr %0, ptr %3, align 8, !tbaa !4
  call void @llvm.lifetime.start.p0(i64 4, ptr %4) #9
  %6 = load ptr, ptr %3, align 8, !tbaa !4
  %7 = call i32 @lua_gettop(ptr noundef %6)
  %8 = icmp eq i32 %7, 1
  br i1 %8, label %12, label %9

9:                                                ; preds = %1
  %10 = load ptr, ptr %3, align 8, !tbaa !4
  %11 = call i32 @luaL_argerror(ptr noundef %10, i32 noundef 1, ptr noundef @.str.15)
  br label %12

12:                                               ; preds = %9, %1
  %13 = load ptr, ptr %3, align 8, !tbaa !4
  call void @lua_pushvalue(ptr noundef %13, i32 noundef -10003)
  %14 = load ptr, ptr %3, align 8, !tbaa !4
  call void @lua_insert(ptr noundef %14, i32 noundef 1)
  %15 = load ptr, ptr %3, align 8, !tbaa !4
  %16 = call i32 @lua_pcall(ptr noundef %15, i32 noundef 1, i32 noundef 1, i32 noundef 0)
  store i32 %16, ptr %4, align 4, !tbaa !9
  %17 = load i32, ptr %4, align 4, !tbaa !9
  %18 = icmp ne i32 %17, 0
  br i1 %18, label %20, label %19

19:                                               ; preds = %12
  store i32 1, ptr %2, align 4
  store i32 1, ptr %5, align 4
  br label %29

20:                                               ; preds = %12
  %21 = load i32, ptr %4, align 4, !tbaa !9
  %22 = icmp eq i32 %21, 2
  br i1 %22, label %23, label %26

23:                                               ; preds = %20
  %24 = load ptr, ptr %3, align 8, !tbaa !4
  call void @lua_pushnil(ptr noundef %24)
  %25 = load ptr, ptr %3, align 8, !tbaa !4
  call void @lua_insert(ptr noundef %25, i32 noundef -2)
  store i32 2, ptr %2, align 4
  store i32 1, ptr %5, align 4
  br label %29

26:                                               ; preds = %20
  %27 = load ptr, ptr %3, align 8, !tbaa !4
  %28 = call i32 (ptr, ptr, ...) @luaL_error(ptr noundef %27, ptr noundef @.str.99)
  store i32 %28, ptr %2, align 4
  store i32 1, ptr %5, align 4
  br label %29

29:                                               ; preds = %26, %23, %19
  call void @llvm.lifetime.end.p0(i64 4, ptr %4) #9
  %30 = load i32, ptr %2, align 4
  ret i32 %30
}