; Function Attrs: nounwind uwtable
define internal i32 @json_protect_conversion(ptr noundef %0) #0 {
  %2 = tail call i32 @lua_gettop(ptr noundef %0) #12
  %3 = icmp eq i32 %2, 1
  br i1 %3, label %6, label %4

4:                                                ; preds = %1
  %5 = tail call i32 @luaL_argerror(ptr noundef %0, i32 noundef 1, ptr noundef nonnull @.str.15) #12
  br label %6

6:                                                ; preds = %4, %1
  tail call void @lua_pushvalue(ptr noundef %0, i32 noundef -10003) #12
  tail call void @lua_insert(ptr noundef %0, i32 noundef 1) #12
  %7 = tail call i32 @lua_pcall(ptr noundef %0, i32 noundef 1, i32 noundef 1, i32 noundef 0) #12
  switch i32 %7, label %9 [
    i32 0, label %11
    i32 2, label %8
  ]

8:                                                ; preds = %6
  tail call void @lua_pushnil(ptr noundef %0) #12
  tail call void @lua_insert(ptr noundef %0, i32 noundef -2) #12
  br label %11

9:                                                ; preds = %6
  %10 = tail call i32 (ptr, ptr, ...) @luaL_error(ptr noundef %0, ptr noundef nonnull @.str.99) #12
  br label %11

11:                                               ; preds = %6, %9, %8
  %.0 = phi i32 [ 2, %8 ], [ %10, %9 ], [ 1, %6 ]
  ret i32 %.0
}